; Function Attrs: mustprogress nounwind uwtable
define internal fastcc void @_ZSt8_DestroyIPN5Yosys7hashlib4dictINS0_5RTLIL8IdStringEN12_GLOBAL__N_16LUTPinENS1_8hash_opsIS4_EEE7entry_tEEvT_SC_(ptr noundef readonly %0, ptr noundef readnone %1) unnamed_addr #3 personality ptr @__gxx_personality_v0 {
  %.not4.i = icmp eq ptr %0, %1
  br i1 %.not4.i, label %_ZNSt12_Destroy_auxILb0EE9__destroyIPN5Yosys7hashlib4dictINS2_5RTLIL8IdStringEN12_GLOBAL__N_16LUTPinENS3_8hash_opsIS6_EEE7entry_tEEEvT_SE_.exit, label %.lr.ph.i

.lr.ph.i:                                         ; preds = %2, %_ZSt8_DestroyIN5Yosys7hashlib4dictINS0_5RTLIL8IdStringEN12_GLOBAL__N_16LUTPinENS1_8hash_opsIS4_EEE7entry_tEEvPT_.exit.i
  %.05.i = phi ptr [ %35, %_ZSt8_DestroyIN5Yosys7hashlib4dictINS0_5RTLIL8IdStringEN12_GLOBAL__N_16LUTPinENS1_8hash_opsIS4_EEE7entry_tEEvPT_.exit.i ], [ %0, %2 ]
  %3 = getelementptr inbounds i8, ptr %.05.i, i64 8
  %.val.i.i.i.i = load i32, ptr %3, align 4
  %4 = load i8, ptr @_ZN5Yosys5RTLIL8IdString17destruct_guard_okE, align 1
  %5 = and i8 %4, 1
  %6 = icmp ne i8 %5, 0
  %7 = icmp ne i32 %.val.i.i.i.i, 0
  %or.cond.i.i.i.i.i.i.i = and i1 %7, %6
  br i1 %or.cond.i.i.i.i.i.i.i, label %8, label %_ZN12_GLOBAL__N_16LUTPinD2Ev.exit.i.i.i.i

8:                                                ; preds = %.lr.ph.i
  %9 = sext i32 %.val.i.i.i.i to i64
  %10 = load ptr, ptr @_ZN5Yosys5RTLIL8IdString24global_refcount_storage_E, align 8
  %11 = getelementptr inbounds i32, ptr %10, i64 %9
  %12 = load i32, ptr %11, align 4
  %13 = add nsw i32 %12, -1
  store i32 %13, ptr %11, align 4
  %14 = icmp sgt i32 %12, 1
  br i1 %14, label %_ZN12_GLOBAL__N_16LUTPinD2Ev.exit.i.i.i.i, label %15

15:                                               ; preds = %8
  invoke void @_ZN5Yosys5RTLIL8IdString14free_referenceEi(i32 noundef %.val.i.i.i.i)
          to label %_ZN12_GLOBAL__N_16LUTPinD2Ev.exit.i.i.i.i unwind label %16

16:                                               ; preds = %15
  %17 = landingpad { ptr, i32 }
          catch ptr null
  %18 = extractvalue { ptr, i32 } %17, 0
  tail call void @__clang_call_terminate(ptr %18) #22
  unreachable

_ZN12_GLOBAL__N_16LUTPinD2Ev.exit.i.i.i.i:        ; preds = %15, %8, %.lr.ph.i
  %19 = load i32, ptr %.05.i, align 4
  %20 = load i8, ptr @_ZN5Yosys5RTLIL8IdString17destruct_guard_okE, align 1
  %21 = and i8 %20, 1
  %22 = icmp ne i8 %21, 0
  %23 = icmp ne i32 %19, 0
  %or.cond.i.i.i.i.i.i = and i1 %23, %22
  br i1 %or.cond.i.i.i.i.i.i, label %24, label %_ZSt8_DestroyIN5Yosys7hashlib4dictINS0_5RTLIL8IdStringEN12_GLOBAL__N_16LUTPinENS1_8hash_opsIS4_EEE7entry_tEEvPT_.exit.i

24:                                               ; preds = %_ZN12_GLOBAL__N_16LUTPinD2Ev.exit.i.i.i.i
  %25 = sext i32 %19 to i64
  %26 = load ptr, ptr @_ZN5Yosys5RTLIL8IdString24global_refcount_storage_E, align 8
  %27 = getelementptr inbounds i32, ptr %26, i64 %25
  %28 = load i32, ptr %27, align 4
  %29 = add nsw i32 %28, -1
  store i32 %29, ptr %27, align 4
  %30 = icmp sgt i32 %28, 1
  br i1 %30, label %_ZSt8_DestroyIN5Yosys7hashlib4dictINS0_5RTLIL8IdStringEN12_GLOBAL__N_16LUTPinENS1_8hash_opsIS4_EEE7entry_tEEvPT_.exit.i, label %31

31:                                               ; preds = %24
  invoke void @_ZN5Yosys5RTLIL8IdString14free_referenceEi(i32 noundef %19)
          to label %_ZSt8_DestroyIN5Yosys7hashlib4dictINS0_5RTLIL8IdStringEN12_GLOBAL__N_16LUTPinENS1_8hash_opsIS4_EEE7entry_tEEvPT_.exit.i unwind label %32

32:                                               ; preds = %31
  %33 = landingpad { ptr, i32 }
          catch ptr null
  %34 = extractvalue { ptr, i32 } %33, 0
  tail call void @__clang_call_terminate(ptr %34) #22
  unreachable

_ZSt8_DestroyIN5Yosys7hashlib4dictINS0_5RTLIL8IdStringEN12_GLOBAL__N_16LUTPinENS1_8hash_opsIS4_EEE7entry_tEEvPT_.exit.i: ; preds = %31, %24, %_ZN12_GLOBAL__N_16LUTPinD2Ev.exit.i.i.i.i
  %35 = getelementptr inbounds i8, ptr %.05.i, i64 16
  %.not.i = icmp eq ptr %35, %1
  br i1 %.not.i, label %_ZNSt12_Destroy_auxILb0EE9__destroyIPN5Yosys7hashlib4dictINS2_5RTLIL8IdStringEN12_GLOBAL__N_16LUTPinENS3_8hash_opsIS6_EEE7entry_tEEEvT_SE_.exit, label %.lr.ph.i, !llvm.loop !98

_ZNSt12_Destroy_auxILb0EE9__destroyIPN5Yosys7hashlib4dictINS2_5RTLIL8IdStringEN12_GLOBAL__N_16LUTPinENS3_8hash_opsIS6_EEE7entry_tEEEvT_SE_.exit: ; preds = %_ZSt8_DestroyIN5Yosys7hashlib4dictINS0_5RTLIL8IdStringEN12_GLOBAL__N_16LUTPinENS1_8hash_opsIS4_EEE7entry_tEEvPT_.exit.i, %2
  ret void
}